; Function Attrs: mustprogress uwtable
define void @_ZN5faiss23IndexIVFScalarQuantizerC2Ev(ptr noundef nonnull align 8 dereferenceable(336) %0) unnamed_addr #1 align 2 personality ptr @__gxx_personality_v0 {
  tail call void @_ZN5faiss8IndexIVFC2Ev(ptr noundef nonnull align 8 dereferenceable(257) %0)
  store ptr getelementptr inbounds ({ [35 x ptr], [6 x ptr] }, ptr @_ZTVN5faiss23IndexIVFScalarQuantizerE, i64 0, i32 0, i64 2), ptr %0, align 8
  %2 = getelementptr inbounds i8, ptr %0, i64 40
  store ptr getelementptr inbounds ({ [35 x ptr], [6 x ptr] }, ptr @_ZTVN5faiss23IndexIVFScalarQuantizerE, i64 0, i32 1, i64 2), ptr %2, align 8
  %3 = getelementptr inbounds i8, ptr %0, i64 264
  invoke void @_ZN5faiss15ScalarQuantizerC1Ev(ptr noundef nonnull align 8 dereferenceable(72) %3)
          to label %4 unwind label %6

4:                                                ; preds = %1
  %5 = getelementptr inbounds i8, ptr %0, i64 256
  store i8 1, ptr %5, align 8
  ret void

6:                                                ; preds = %1
  %7 = landingpad { ptr, i32 }
          cleanup
  tail call void @_ZN5faiss8IndexIVFD2Ev(ptr noundef nonnull align 8 dereferenceable(257) %0) #10
  resume { ptr, i32 } %7
}